Certificate:
    Data:
        Version: 3 (0x2)
        Serial Number: 2 (0x2)
        Signature Algorithm: sha256WithRSAEncryption
        Issuer: C=CA, ST=Ontario, L=Toronto, O=City of Toronto, OU=MOVE Team, CN=move.intra.dev-toronto.ca/emailAddress=move-team@toronto.ca
        Validity
            Not Before: Jun 10 19:55:30 2024 GMT
            Not After : May 17 19:55:30 2124 GMT
        Subject: C=CA, ST=Ontario, L=Toronto, O=City of Toronto, CN=backend
        Subject Public Key Info:
            Public Key Algorithm: rsaEncryption
                RSA Public-Key: (2048 bit)
                Modulus:
                    00:cf:f5:e3:b9:35:98:10:0a:32:5f:d1:19:9c:6f:
                    49:41:19:b5:11:3d:42:27:52:d2:98:87:20:f7:22:
                    db:a6:b2:4c:37:81:69:c6:a1:74:0c:61:0a:a9:f9:
                    66:a5:ee:4c:55:7a:d2:31:37:5f:07:51:b7:90:67:
                    44:4c:50:52:bb:37:20:69:24:3c:8f:f6:5d:6a:d8:
                    f5:0a:5b:23:83:57:9a:c0:1c:2b:b2:28:b7:32:c2:
                    dd:26:ae:65:69:21:b1:66:b5:f4:70:af:7a:a4:4a:
                    83:f9:5f:f9:a8:e7:2d:1b:01:b1:18:cc:6a:4c:66:
                    c9:98:fc:62:01:5c:d1:fe:89:22:c9:0a:fd:68:c7:
                    d2:dc:95:c2:63:1f:a2:bd:8d:96:02:5a:ce:a3:a0:
                    98:58:c2:66:f3:ad:a2:b2:94:cc:d9:96:b9:4a:09:
                    fd:82:4f:3f:ea:5c:aa:0a:8d:47:97:75:4b:e6:97:
                    72:41:b6:c8:aa:dd:82:25:c9:34:f0:83:28:aa:f3:
                    fd:50:5c:f4:d3:1a:ba:11:d5:f8:ca:4a:0f:da:94:
                    95:1e:82:68:65:67:dd:cf:a5:fa:48:2b:b0:27:53:
                    e6:09:b5:82:ed:39:f5:e0:b9:bd:92:8e:86:bf:83:
                    4a:a1:ae:c0:27:76:5b:9a:00:e2:7e:07:7e:af:77:
                    2b:3f
                Exponent: 65537 (0x10001)
        X509v3 extensions:
            X509v3 Subject Key Identifier: 
                1D:DD:60:AD:95:82:0B:DA:00:4B:9D:3C:A9:04:35:3F:88:68:C8:76
            X509v3 Authority Key Identifier: 
                keyid:7B:FC:9F:01:24:2C:A5:12:A0:53:19:CC:57:15:15:8E:42:E1:34:EF

            X509v3 Basic Constraints: 
                CA:FALSE
            X509v3 Key Usage: 
                Digital Signature, Key Encipherment
            X509v3 Subject Alternative Name: 
                DNS:backend
            Netscape Comment: 
                OpenSSL Generated Certificate
    Signature Algorithm: sha256WithRSAEncryption
         d0:0f:50:7e:aa:70:45:5e:d0:cb:34:80:e0:8c:2f:cc:d8:a5:
         36:87:0b:46:47:31:bb:18:9b:ad:b3:2a:27:67:b4:c2:29:2a:
         ba:b3:b9:7c:ee:2e:b9:3d:2b:49:01:93:55:b8:4d:d8:f9:dc:
         16:6b:ef:1d:d9:fe:7d:24:6e:f4:cf:65:30:ad:68:66:f0:e7:
         52:fb:96:fb:6f:be:17:91:9a:b2:13:e2:f2:a4:1c:d4:c4:83:
         6e:f6:e6:f8:1b:83:48:24:7c:63:6d:f9:7f:40:d2:de:10:d9:
         85:f0:f3:d9:f6:9a:d8:08:1a:06:6d:b4:44:16:a6:68:8c:34:
         49:9f:46:d5:ba:ac:98:83:ff:c6:88:76:c6:76:6b:4d:89:1e:
         73:9c:6f:1e:a4:9c:93:19:12:3d:4b:cb:e2:d8:bb:c9:a7:31:
         5a:4d:5b:11:a4:3a:4d:82:68:4b:63:63:a1:2d:4d:d9:02:97:
         94:cb:5f:a8:77:e9:2c:dd:30:88:cc:54:6c:5a:87:c4:99:33:
         d4:02:9e:ce:b8:eb:79:c9:91:07:50:40:0a:25:c7:e8:a5:4d:
         b7:94:62:1c:9c:17:71:b2:ed:a8:82:77:62:2c:05:31:bc:6c:
         c1:71:dd:64:e2:54:d9:6b:88:ec:71:01:43:36:2a:3d:63:d7:
         23:f9:e1:04:24:cc:03:17:d2:a6:0e:ac:e6:10:f7:98:a0:4c:
         7d:9d:fb:53:33:c0:bd:1f:ae:04:bf:c3:67:04:1d:29:ac:f4:
         d7:e3:f6:e1:0d:2a:92:a0:d6:43:8e:e3:be:8b:21:35:85:b4:
         61:7a:94:e3:0d:2b:4c:4b:f1:c0:e1:6c:1d:7c:e3:3a:92:97:
         e3:a0:23:59:81:ab:5a:db:10:6b:c3:f9:c3:c1:cf:67:8a:e4:
         aa:d1:56:11:67:64:ca:9c:d1:b5:fc:7b:9f:ed:96:8b:66:4e:
         b5:16:de:83:2a:ef:97:5c:3f:af:96:b6:31:51:59:4c:04:a5:
         a6:b7:b4:78:47:86:13:3e:fd:58:1d:f3:9e:e0:8a:8e:c4:1f:
         92:4b:09:2a:da:33:9b:cf:8b:a3:20:9b:1d:66:d0:05:84:82:
         cc:c0:4c:19:a4:b2:cd:03:1b:27:be:af:9c:18:ab:f8:e9:a9:
         d0:c3:32:d8:a8:25:04:8d:04:d7:38:88:d6:6e:a7:ed:ad:7e:
         c0:49:43:54:a6:6f:14:d2:ea:3e:fd:7f:02:bb:5e:00:28:46:
         6b:41:f3:da:9a:d4:ab:7d:38:4c:59:7b:8b:49:dd:bb:5e:9b:
         ac:c9:4e:1c:d3:b0:42:41:2f:82:31:24:46:8b:0e:ec:98:f6:
         86:8e:3c:91:4d:52:ff:2d
-----BEGIN CERTIFICATE-----
MIIFITCCAwmgAwIBAgIBAjANBgkqhkiG9w0BAQsFADCBqDELMAkGA1UEBhMCQ0Ex
EDAOBgNVBAgMB09udGFyaW8xEDAOBgNVBAcMB1Rvcm9udG8xGDAWBgNVBAoMD0Np
dHkgb2YgVG9yb250bzESMBAGA1UECwwJTU9WRSBUZWFtMSIwIAYDVQQDDBltb3Zl
LmludHJhLmRldi10b3JvbnRvLmNhMSMwIQYJKoZIhvcNAQkBFhRtb3ZlLXRlYW1A
dG9yb250by5jYTAgFw0yNDA2MTAxOTU1MzBaGA8yMTI0MDUxNzE5NTUzMFowXTEL
MAkGA1UEBhMCQ0ExEDAOBgNVBAgMB09udGFyaW8xEDAOBgNVBAcMB1Rvcm9udG8x
GDAWBgNVBAoMD0NpdHkgb2YgVG9yb250bzEQMA4GA1UEAwwHYmFja2VuZDCCASIw
DQYJKoZIhvcNAQEBBQADggEPADCCAQoCggEBAM/147k1mBAKMl/RGZxvSUEZtRE9
QidS0piHIPci26ayTDeBacahdAxhCqn5ZqXuTFV60jE3XwdRt5BnRExQUrs3IGkk
PI/2XWrY9QpbI4NXmsAcK7IotzLC3SauZWkhsWa19HCveqRKg/lf+ajnLRsBsRjM
akxmyZj8YgFc0f6JIskK/WjH0tyVwmMfor2NlgJazqOgmFjCZvOtorKUzNmWuUoJ
/YJPP+pcqgqNR5d1S+aXckG2yKrdgiXJNPCDKKrz/VBc9NMauhHV+MpKD9qUlR6C
aGVn3c+l+kgrsCdT5gm1gu059eC5vZKOhr+DSqGuwCd2W5oA4n4Hfq93Kz8CAwEA
AaOBnTCBmjAdBgNVHQ4EFgQUHd1grZWCC9oAS508qQQ1P4hoyHYwHwYDVR0jBBgw
FoAUe/yfASQspRKgUxnMVxUVjkLhNO8wCQYDVR0TBAIwADALBgNVHQ8EBAMCBaAw
EgYDVR0RBAswCYIHYmFja2VuZDAsBglghkgBhvhCAQ0EHxYdT3BlblNTTCBHZW5l
cmF0ZWQgQ2VydGlmaWNhdGUwDQYJKoZIhvcNAQELBQADggIBANAPUH6qcEVe0Ms0
gOCML8zYpTaHC0ZHMbsYm62zKidntMIpKrqzuXzuLrk9K0kBk1W4Tdj53BZr7x3Z
/n0kbvTPZTCtaGbw51L7lvtvvheRmrIT4vKkHNTEg2725vgbg0gkfGNt+X9A0t4Q
2YXw89n2mtgIGgZttEQWpmiMNEmfRtW6rJiD/8aIdsZ2a02JHnOcbx6knJMZEj1L
y+LYu8mnMVpNWxGkOk2CaEtjY6EtTdkCl5TLX6h36SzdMIjMVGxah8SZM9QCns64
63nJkQdQQAolx+ilTbeUYhycF3Gy7aiCd2IsBTG8bMFx3WTiVNlriOxxAUM2Kj1j
1yP54QQkzAMX0qYOrOYQ95igTH2d+1MzwL0frgS/w2cEHSms9Nfj9uENKpKg1kOO
476LITWFtGF6lOMNK0xL8cDhbB184zqSl+OgI1mBq1rbEGvD+cPBz2eK5KrRVhFn
ZMqc0bX8e5/tlotmTrUW3oMq75dcP6+WtjFRWUwEpaa3tHhHhhM+/Vgd857gio7E
H5JLCSraM5vPi6Mgmx1m0AWEgszATBmkss0DGye+r5wYq/jpqdDDMtioJQSNBNc4
iNZup+2tfsBJQ1SmbxTS6j79fwK7XgAoRmtB89qa1Kt9OExZe4tJ3btem6zJThzT
sEJBL4IxJEaLDuyY9oaOPJFNUv8t
-----END CERTIFICATE-----
-----BEGIN CERTIFICATE-----
MIIGNzCCBB+gAwIBAgIJAKQ4bGzilvWmMA0GCSqGSIb3DQEBCwUAMIGoMQswCQYD
VQQGEwJDQTEQMA4GA1UECAwHT250YXJpbzEQMA4GA1UEBwwHVG9yb250bzEYMBYG
A1UECgwPQ2l0eSBvZiBUb3JvbnRvMRIwEAYDVQQLDAlNT1ZFIFRlYW0xIjAgBgNV
BAMMGW1vdmUuaW50cmEuZGV2LXRvcm9udG8uY2ExIzAhBgkqhkiG9w0BCQEWFG1v
dmUtdGVhbUB0b3JvbnRvLmNhMCAXDTE5MTEyMTE3MDQwOVoYDzIxMTkxMDI4MTcw
NDA5WjCBqDELMAkGA1UEBhMCQ0ExEDAOBgNVBAgMB09udGFyaW8xEDAOBgNVBAcM
B1Rvcm9udG8xGDAWBgNVBAoMD0NpdHkgb2YgVG9yb250bzESMBAGA1UECwwJTU9W
RSBUZWFtMSIwIAYDVQQDDBltb3ZlLmludHJhLmRldi10b3JvbnRvLmNhMSMwIQYJ
KoZIhvcNAQkBFhRtb3ZlLXRlYW1AdG9yb250by5jYTCCAiIwDQYJKoZIhvcNAQEB
BQADggIPADCCAgoCggIBANlkQi9KNf93vTPZbHHp/M6fxcdjxMPIlw7KDPMSPx2C
wqTTu/UN/uBPmYcruMFmOQ5m+7CRtZ3Tm9O6kuTWlI3djoaEj0R3Qxr5x3tfTV3G
zU7cbh21JWkWfsJ0n2ocwnfXzY1JHFa8oKQ3YchtUKk9qklSsiaMWvQMlTwn0Leg
kzuIKP9PY9hVAZMEyAPzXxEBC0v8TNJJD6RpE7WYv0DC0JJk9XcLJiBL1noSrJMP
hG1weJLcNYEtOK6rM53fXgekxg7J2D7uC7qDoTSXUOAmcxsZJEKK4oGd/TljNMGy
xt5Vk108lnzi9Gk7hUVSE9Hv7Qywtc2NwWQvmfUESvJYQ5oQefmLWfg9i8t4QxVo
ycN+4KxtwNyJ/pXfypDzNM1PdMccl+BDHA6QLlhDmr0G8kxHLAjUMTkLqFDw7Zzd
5jAYtMF/b2UaouAiFYl32Ms0KUGpblEG39L5hKAuLPTgaY6X/ijXExnU7afMv+dj
vC/ifAWVtltFwdw388uHjvdil4TjkF4QEET427rDjrIFe0063ZdANPjlFpRzGuGs
DVwjspbn6+HaRPqV+LWoA60IxumN5DA1mltzpVE9/6fnYMauz3twmMFrxlR5GVqt
wYxQYV+tMEEz6K3sG75CbsJUtjcPNez1NIqD5/DRWDgrO8SmNN//LX68WULHDQ7b
AgMBAAGjYDBeMB0GA1UdDgQWBBR7/J8BJCylEqBTGcxXFRWOQuE07zAfBgNVHSME
GDAWgBR7/J8BJCylEqBTGcxXFRWOQuE07zAPBgNVHRMBAf8EBTADAQH/MAsGA1Ud
DwQEAwIBBjANBgkqhkiG9w0BAQsFAAOCAgEAbduX/k6VqpGcjNe6E+mVZKq51imt
uDws9xQfKu36quaZBOlikE7wsSOIcTgYhRs4+bCq7byU1AkEskopArhS3OGVx9am
hbJPKTbB4SM24wWkj0DMizjvOKt9xSCla04Nf6+FWnshUXCwX+uMamApt4EX2Bla
kALJJKGovM6qJYs2DekzgRN6jNhIV3URIu1VHjjoJXVoN0QZ/f0Io6rz+SmqeVSb
54hkVgGKcXzIve45Rf+3CJQ/Qdg73QPLuqTSQF/Zy8LWHDwgoqPl3kkPNzn74QpX
lKjQJWPl+RqGOecPHinqJCgDvTjj6qJeOZhKtjhaQs2Jm9bNbQ7mF2CS95HI4YOg
lWu6JxjJfVM0a/NqIso29dcPMuENNs80Mgf9VkvQHg1kCpmtYytpBlWMK6SXbaVf
Xje6RN+3sqKM3cH7JjGxzYZChDZhPrJ7ruYnDAhyC1lwtJx9sROKbavR23tIhwlB
4dB8rNMfNYoGOynF6L6yRFwIKQY7+Xa1nz1rbvmgh25ykS4cHYjQU66Q4ha8186b
jZmSqKrK+v12lzsgonyBILyQsBoSKI8Q8rnSMtxnD+gVTAigVHhbtyKUZWRsWc8z
b4z8KxDDC/Yj94HR93jpe4DKLcCJyVb3QSkuQ+7SZNqd4e9DUyYlI4BxOF3aOGnD
RnLlbr/eQfHfby0=
-----END CERTIFICATE-----
